Certificate:
    Data:
        Version: 3 (0x2)
        Serial Number: 268435667 (0x100000d3)
        Signature Algorithm: sha256WithRSAEncryption
        Issuer: C=DE, ST=Hessen, O=privacyidea, CN=CA001
        Validity
            Not Before: Jan 17 16:39:47 2021 GMT
            Not After : Jan 17 16:39:47 2022 GMT
        Subject: C=DE, ST=Hessen, O=privacyidea, CN=requester.localdomain
        Subject Public Key Info:
            Public Key Algorithm: rsaEncryption
                RSA Public-Key: (2048 bit)
                Modulus:
                    00:cd:be:14:4f:fa:ce:01:3f:42:22:1b:1d:9c:af:
                    dd:92:d2:7f:db:6c:b7:3e:39:43:43:6b:13:03:f1:
                    05:f4:07:74:bc:76:69:28:0b:af:19:8e:d7:fc:e3:
                    cd:c6:58:f2:ca:7f:08:6d:53:fc:07:02:44:24:c6:
                    b4:34:4c:8c:04:fe:33:0e:40:e2:20:ba:02:73:5a:
                    f7:f5:4f:63:6e:cc:c6:b6:df:54:1d:37:39:7d:51:
                    36:26:5f:bd:dc:3f:a8:8b:6b:a2:ae:b6:9d:d6:21:
                    e7:df:41:b8:7a:28:2a:68:48:ca:a8:2d:ed:e1:e9:
                    46:5e:5a:72:6d:b4:84:38:87:91:fd:94:11:0b:28:
                    84:c6:c2:2f:2a:fb:01:f9:36:7a:09:75:d1:33:88:
                    3c:73:41:5b:c8:bf:94:89:70:a1:f0:c0:b9:2e:50:
                    53:1e:b1:17:64:69:f4:2d:81:e0:a9:0d:0e:32:e9:
                    ba:55:8a:85:f1:1b:6f:49:79:b4:7f:88:c3:0d:3e:
                    54:88:9b:3d:1f:38:8c:04:f3:ee:6a:63:2b:f5:c6:
                    db:b4:83:aa:c4:78:41:3a:7d:4b:e1:c8:3e:71:ca:
                    1b:61:59:ea:c6:c4:ca:32:5e:c9:e9:bf:12:29:e6:
                    c6:c3:63:fe:a0:55:da:7a:f1:60:98:4d:26:ed:fa:
                    70:2d
                Exponent: 65537 (0x10001)
        X509v3 extensions:
            X509v3 Key Usage: 
                Digital Signature, Key Encipherment
            X509v3 Basic Constraints: 
                CA:FALSE
            Netscape Cert Type: 
                SSL Server
            Netscape Comment: 
                OpenSSL Generated Server Certificate
            X509v3 Subject Key Identifier: 
                53:3F:ED:5D:09:07:B3:65:7B:AB:45:C9:24:5B:09:77:80:0A:96:ED
            X509v3 Authority Key Identifier: 
                keyid:F4:A7:C0:CC:91:46:AF:64:F3:91:F2:27:F8:C8:B2:6F:8A:87:32:73
                DirName:/C=DE/ST=Hessen/O=privacyidea/CN=CA001
                serial:FB:C8:EB:AC:83:CD:12:07

            X509v3 Extended Key Usage: 
                TLS Web Server Authentication
    Signature Algorithm: sha256WithRSAEncryption
         57:b5:2f:93:c0:58:9e:2c:45:69:86:4e:fb:4a:6a:3e:84:5c:
         3f:79:4d:76:f2:f2:de:6e:75:ec:d9:3d:1c:fd:70:77:c2:c0:
         31:af:67:51:83:6e:74:d5:e8:a2:6a:0d:7d:4a:f4:3e:04:bf:
         59:15:81:60:0e:fd:ff:72:cc:20:e8:eb:a0:c6:fa:28:58:e7:
         e6:f5:2f:b7:5f:74:18:00:76:ef:11:d5:10:c1:39:3c:76:b4:
         21:29:e6:6c:ae:fb:df:7e:00:9a:66:98:62:c7:c3:79:28:bb:
         d0:a0:f2:86:76:52:2d:32:e2:e5:33:b2:11:d4:1d:41:45:d4:
         ef:8a:53:a0:37:79:de:51:0f:72:64:b0:41:f3:56:7b:bd:19:
         2b:88:15:ea:2e:a1:90:89:fe:58:15:88:1e:5e:b4:3b:00:74:
         e3:95:9c:b4:81:dd:72:83:b9:65:50:6e:98:0a:5f:1e:df:ec:
         a1:e7:80:e8:06:11:22:dc:0d:c5:d6:2a:27:9e:1c:97:f5:ad:
         fe:85:fe:05:20:ca:b9:cb:01:b0:22:45:3f:6d:e2:cb:8c:32:
         ed:bc:b8:41:51:f0:9c:94:d9:2a:45:a7:a2:f9:a6:2d:11:77:
         79:14:c1:91:5a:45:66:b2:c3:b7:57:fd:6a:0d:41:a6:55:4b:
         02:3a:03:60
-----BEGIN CERTIFICATE-----
MIIEJjCCAw6gAwIBAgIEEAAA0zANBgkqhkiG9w0BAQsFADBEMQswCQYDVQQGEwJE
RTEPMA0GA1UECAwGSGVzc2VuMRQwEgYDVQQKDAtwcml2YWN5aWRlYTEOMAwGA1UE
AwwFQ0EwMDEwHhcNMjEwMTE3MTYzOTQ3WhcNMjIwMTE3MTYzOTQ3WjBUMQswCQYD
VQQGEwJERTEPMA0GA1UECAwGSGVzc2VuMRQwEgYDVQQKDAtwcml2YWN5aWRlYTEe
MBwGA1UEAwwVcmVxdWVzdGVyLmxvY2FsZG9tYWluMIIBIjANBgkqhkiG9w0BAQEF
AAOCAQ8AMIIBCgKCAQEAzb4UT/rOAT9CIhsdnK/dktJ/22y3PjlDQ2sTA/EF9Ad0
vHZpKAuvGY7X/OPNxljyyn8IbVP8BwJEJMa0NEyMBP4zDkDiILoCc1r39U9jbszG
tt9UHTc5fVE2Jl+93D+oi2uirrad1iHn30G4eigqaEjKqC3t4elGXlpybbSEOIeR
/ZQRCyiExsIvKvsB+TZ6CXXRM4g8c0FbyL+UiXCh8MC5LlBTHrEXZGn0LYHgqQ0O
Mum6VYqF8RtvSXm0f4jDDT5UiJs9HziMBPPuamMr9cbbtIOqxHhBOn1L4cg+ccob
YVnqxsTKMl7J6b8SKebGw2P+oFXaevFgmE0m7fpwLQIDAQABo4IBDjCCAQowCwYD
VR0PBAQDAgWgMAkGA1UdEwQCMAAwEQYJYIZIAYb4QgEBBAQDAgZAMDMGCWCGSAGG
+EIBDQQmFiRPcGVuU1NMIEdlbmVyYXRlZCBTZXJ2ZXIgQ2VydGlmaWNhdGUwHQYD
VR0OBBYEFFM/7V0JB7Nle6tFySRbCXeACpbtMHQGA1UdIwRtMGuAFPSnwMyRRq9k
85HyJ/jIsm+KhzJzoUikRjBEMQswCQYDVQQGEwJERTEPMA0GA1UECAwGSGVzc2Vu
MRQwEgYDVQQKDAtwcml2YWN5aWRlYTEOMAwGA1UEAwwFQ0EwMDGCCQD7yOusg80S
BzATBgNVHSUEDDAKBggrBgEFBQcDATANBgkqhkiG9w0BAQsFAAOCAQEAV7Uvk8BY
nixFaYZO+0pqPoRcP3lNdvLy3m517Nk9HP1wd8LAMa9nUYNudNXoomoNfUr0PgS/
WRWBYA79/3LMIOjroMb6KFjn5vUvt190GAB27xHVEME5PHa0ISnmbK77334AmmaY
YsfDeSi70KDyhnZSLTLi5TOyEdQdQUXU74pToDd53lEPcmSwQfNWe70ZK4gV6i6h
kIn+WBWIHl60OwB045WctIHdcoO5ZVBumApfHt/soeeA6AYRItwNxdYqJ54cl/Wt
/oX+BSDKucsBsCJFP23iy4wy7by4QVHwnJTZKkWnovmmLRF3eRTBkVpFZrLDt1f9
ag1BplVLAjoDYA==
-----END CERTIFICATE-----
