Certificate:
    Data:
        Version: 3 (0x2)
        Serial Number: 268435670 (0x100000d6)
        Signature Algorithm: sha256WithRSAEncryption
        Issuer: C=DE, ST=Hessen, O=privacyidea, CN=CA001
        Validity
            Not Before: Jan 17 16:41:29 2021 GMT
            Not After : Jan 17 16:41:29 2022 GMT
        Subject: CN=selfservice,CN=user,O=realm1/emailAddress=meine
        Subject Public Key Info:
            Public Key Algorithm: rsaEncryption
                RSA Public-Key: (2048 bit)
                Modulus:
                    00:cf:3c:d4:33:0e:12:c4:e6:da:cd:b6:56:a1:1c:
                    26:bb:26:1c:8a:4a:73:a8:58:8a:b6:1e:b3:8b:99:
                    d2:1d:07:c2:92:89:79:c0:69:d8:c8:df:28:61:98:
                    1e:b3:fe:ae:2b:bd:78:a9:f7:6e:47:dc:a3:a0:16:
                    8c:85:02:c1:4e:92:fd:72:6e:f0:c8:03:29:9b:b8:
                    00:6e:c0:83:95:c8:34:20:36:9c:b3:e5:e4:e6:76:
                    73:a3:1a:ad:40:96:e0:53:54:00:ec:76:79:9a:c6:
                    0d:7e:b6:bd:29:ec:83:f3:cb:89:a4:cb:6c:00:ba:
                    0c:c5:78:0f:ff:69:b8:94:f4:04:70:43:3f:d8:9e:
                    d7:a7:fb:5d:ce:75:8e:da:e7:c4:07:b1:9d:de:6f:
                    88:4b:b6:4d:9a:cf:f9:bc:fa:9f:cd:32:6d:f6:3a:
                    0b:0d:23:42:78:ec:97:42:bf:0e:4d:60:56:e1:d3:
                    02:f2:19:cb:84:57:90:e5:70:a1:a2:83:35:86:e2:
                    da:86:9f:f9:8a:c4:79:b3:52:28:da:cb:bb:34:ca:
                    d3:da:91:4a:cf:8d:76:a2:b2:6b:9b:f9:96:fd:09:
                    2a:da:11:23:4d:f0:cb:d6:b2:b1:0e:12:6c:9a:19:
                    65:98:87:ca:e4:ee:24:ce:44:ac:90:8f:9d:1b:c5:
                    2a:9d
                Exponent: 65537 (0x10001)
        X509v3 extensions:
            X509v3 Key Usage: 
                Digital Signature, Key Encipherment
            X509v3 Basic Constraints: 
                CA:FALSE
            Netscape Cert Type: 
                SSL Server
            Netscape Comment: 
                OpenSSL Generated Server Certificate
            X509v3 Subject Key Identifier: 
                4D:07:90:AD:FF:1D:0D:E7:1A:DD:D6:2E:FA:BA:34:CB:AA:1F:24:C6
            X509v3 Authority Key Identifier: 
                keyid:F4:A7:C0:CC:91:46:AF:64:F3:91:F2:27:F8:C8:B2:6F:8A:87:32:73
                DirName:/C=DE/ST=Hessen/O=privacyidea/CN=CA001
                serial:FB:C8:EB:AC:83:CD:12:07

            X509v3 Extended Key Usage: 
                TLS Web Server Authentication
    Signature Algorithm: sha256WithRSAEncryption
         3d:ca:79:26:de:47:39:b6:aa:98:68:80:f3:de:4e:2d:c6:4c:
         17:4c:f6:91:71:02:66:6f:5b:26:64:05:32:32:93:15:03:19:
         5b:5d:97:c2:77:42:45:91:93:aa:f0:91:24:0d:12:a0:7b:62:
         a6:d5:28:11:f6:6c:36:ff:d8:54:f0:57:5d:87:f6:eb:a3:79:
         1c:79:1e:d1:fa:87:b2:6c:df:d3:80:7c:b0:50:fe:7e:fc:19:
         8b:6e:27:dd:b0:bf:8a:7d:41:1f:5b:4d:43:a4:d7:6c:ef:7b:
         ab:cf:0a:e1:5a:d4:37:7b:bd:28:ff:23:0a:ae:7f:99:b3:1c:
         f2:ad:ae:d9:a1:5e:d4:88:5f:ea:bb:30:f2:4c:cf:31:6a:8f:
         63:e4:b2:15:2c:29:a5:a3:d4:8d:ae:ed:d4:06:e5:fe:aa:75:
         da:ca:bd:19:db:3b:88:98:87:d8:f6:cf:1d:78:c8:9f:ec:1b:
         df:ac:66:e8:42:97:d0:a7:f9:51:5f:36:9b:bd:4a:ac:85:b4:
         a5:a9:0c:97:e7:4e:ec:f1:1b:24:48:34:ba:bf:95:1b:b6:35:
         a7:7b:e3:01:54:fd:69:57:63:e8:ab:e2:d4:1f:ff:13:e0:34:
         e9:d3:11:a7:7d:ee:d3:de:08:37:1c:bc:c3:e2:a3:9c:68:9f:
         90:71:66:2b
-----BEGIN CERTIFICATE-----
MIIEDzCCAvegAwIBAgIEEAAA1jANBgkqhkiG9w0BAQsFADBEMQswCQYDVQQGEwJE
RTEPMA0GA1UECAwGSGVzc2VuMRQwEgYDVQQKDAtwcml2YWN5aWRlYTEOMAwGA1UE
AwwFQ0EwMDEwHhcNMjEwMTE3MTY0MTI5WhcNMjIwMTE3MTY0MTI5WjA9MSUwIwYD
VQQDDBxzZWxmc2VydmljZSxDTj11c2VyLE89cmVhbG0xMRQwEgYJKoZIhvcNAQkB
FgVtZWluZTCCASIwDQYJKoZIhvcNAQEBBQADggEPADCCAQoCggEBAM881DMOEsTm
2s22VqEcJrsmHIpKc6hYirYes4uZ0h0HwpKJecBp2MjfKGGYHrP+riu9eKn3bkfc
o6AWjIUCwU6S/XJu8MgDKZu4AG7Ag5XINCA2nLPl5OZ2c6MarUCW4FNUAOx2eZrG
DX62vSnsg/PLiaTLbAC6DMV4D/9puJT0BHBDP9ie16f7Xc51jtrnxAexnd5viEu2
TZrP+bz6n80ybfY6Cw0jQnjsl0K/Dk1gVuHTAvIZy4RXkOVwoaKDNYbi2oaf+YrE
ebNSKNrLuzTK09qRSs+NdqKya5v5lv0JKtoRI03wy9aysQ4SbJoZZZiHyuTuJM5E
rJCPnRvFKp0CAwEAAaOCAQ4wggEKMAsGA1UdDwQEAwIFoDAJBgNVHRMEAjAAMBEG
CWCGSAGG+EIBAQQEAwIGQDAzBglghkgBhvhCAQ0EJhYkT3BlblNTTCBHZW5lcmF0
ZWQgU2VydmVyIENlcnRpZmljYXRlMB0GA1UdDgQWBBRNB5Ct/x0N5xrd1i76ujTL
qh8kxjB0BgNVHSMEbTBrgBT0p8DMkUavZPOR8if4yLJviocyc6FIpEYwRDELMAkG
A1UEBhMCREUxDzANBgNVBAgMBkhlc3NlbjEUMBIGA1UECgwLcHJpdmFjeWlkZWEx
DjAMBgNVBAMMBUNBMDAxggkA+8jrrIPNEgcwEwYDVR0lBAwwCgYIKwYBBQUHAwEw
DQYJKoZIhvcNAQELBQADggEBAD3KeSbeRzm2qphogPPeTi3GTBdM9pFxAmZvWyZk
BTIykxUDGVtdl8J3QkWRk6rwkSQNEqB7YqbVKBH2bDb/2FTwV12H9uujeRx5HtH6
h7Js39OAfLBQ/n78GYtuJ92wv4p9QR9bTUOk12zve6vPCuFa1Dd7vSj/Iwquf5mz
HPKtrtmhXtSIX+q7MPJMzzFqj2PkshUsKaWj1I2u7dQG5f6qddrKvRnbO4iYh9j2
zx14yJ/sG9+sZuhCl9Cn+VFfNpu9SqyFtKWpDJfnTuzxGyRINLq/lRu2Nad74wFU
/WlXY+ir4tQf/xPgNOnTEad97tPeCDccvMPio5xon5BxZis=
-----END CERTIFICATE-----
