Certificate:
    Data:
        Version: 3 (0x2)
        Serial Number: 268435668 (0x100000d4)
        Signature Algorithm: sha256WithRSAEncryption
        Issuer: C=DE, ST=Hessen, O=privacyidea, CN=CA001
        Validity
            Not Before: Jan 17 16:39:47 2021 GMT
            Not After : Jan 17 16:39:47 2022 GMT
        Subject: CN=cn=cornelius
        Subject Public Key Info:
            Public Key Algorithm: rsaEncryption
                RSA Public-Key: (2048 bit)
                Modulus:
                    00:ce:a4:39:30:25:73:e4:9d:e6:37:3b:85:59:83:
                    ef:a3:6e:f9:83:b9:f7:48:b0:0b:d5:e8:05:40:61:
                    cd:c5:5a:bc:11:2f:5b:4e:d0:4f:b8:d0:e8:7f:05:
                    ab:ad:24:0b:90:d4:3f:60:ec:15:b6:4e:be:8e:d9:
                    26:ab:f2:2f:7f:35:c2:a6:a1:bc:52:3a:d9:88:fb:
                    b3:fa:71:20:b9:51:0e:f8:af:0d:16:be:bd:5d:b9:
                    ab:30:d5:ac:6b:3c:bc:ee:28:4a:4f:6f:d4:09:15:
                    f7:98:af:77:db:36:15:2e:1e:ee:0f:d0:d9:60:ad:
                    db:b9:c4:3f:c6:25:32:f9:e3:e9:50:b8:ec:84:a0:
                    c4:d2:9c:fd:ce:25:80:85:7e:3a:ad:4c:a7:40:1b:
                    0a:58:18:9f:c2:5e:36:e1:d1:44:e9:46:b6:dc:b4:
                    28:a2:ec:ed:02:f7:25:79:e1:86:8e:69:67:52:ee:
                    82:21:b7:84:2d:cc:e7:a8:39:57:7d:a3:1e:e9:50:
                    63:77:29:ab:e4:a5:ff:dc:ee:4c:4b:5e:08:2b:62:
                    08:2d:75:b8:26:6c:93:eb:f5:45:ea:cd:83:58:53:
                    15:46:e6:6b:43:c1:2f:d9:88:4b:3d:d5:fd:0c:ff:
                    51:52:ed:54:fb:27:2d:59:ef:4c:50:ce:71:cd:eb:
                    5a:99
                Exponent: 65537 (0x10001)
        X509v3 extensions:
            X509v3 Key Usage: 
                Digital Signature, Key Encipherment
            X509v3 Basic Constraints: 
                CA:FALSE
            Netscape Cert Type: 
                SSL Server
            Netscape Comment: 
                OpenSSL Generated Server Certificate
            X509v3 Subject Key Identifier: 
                0E:D5:BA:4E:7D:92:57:15:FD:61:4E:34:5B:E9:62:D0:20:1C:7D:08
            X509v3 Authority Key Identifier: 
                keyid:F4:A7:C0:CC:91:46:AF:64:F3:91:F2:27:F8:C8:B2:6F:8A:87:32:73
                DirName:/C=DE/ST=Hessen/O=privacyidea/CN=CA001
                serial:FB:C8:EB:AC:83:CD:12:07

            X509v3 Extended Key Usage: 
                TLS Web Server Authentication
    Signature Algorithm: sha256WithRSAEncryption
         84:cc:90:9a:cc:0e:e7:98:6e:f2:40:15:85:57:22:79:99:81:
         2f:04:80:1c:ca:62:80:b8:dd:08:26:1d:38:4a:81:d1:8d:98:
         e8:d8:0d:c3:c4:19:d8:1f:44:ca:86:3c:3e:92:e0:0e:db:5f:
         c3:e2:17:f4:c7:fb:43:36:5c:24:de:92:86:02:a6:60:9f:13:
         13:20:b8:9f:0e:5e:64:3d:a9:90:8d:8f:5a:d0:f2:33:d0:8b:
         7a:23:a1:a5:a6:0c:fc:53:59:ed:f4:ed:1e:48:df:51:c7:23:
         c1:de:69:b7:6b:20:b0:80:1a:60:d7:71:6f:f9:d3:54:d4:bc:
         1e:8d:d7:d1:99:84:e2:da:78:4a:74:be:13:84:1b:99:d4:c9:
         66:72:ab:f2:6c:e5:74:fb:6b:31:9e:9f:97:e0:fa:f0:38:ed:
         55:64:ef:bc:22:bc:90:00:de:c1:01:b4:07:48:07:35:04:d5:
         19:73:e8:2b:53:c9:0f:ce:a1:c5:7f:9f:c3:ac:66:df:b9:d2:
         96:ed:d2:5a:20:77:57:76:30:2d:3b:6c:8a:60:98:12:78:8a:
         14:68:9b:a2:0b:00:e5:71:7b:a6:5a:63:44:aa:d9:97:11:a4:
         45:75:58:4e:4b:d8:3f:39:a4:65:e2:fb:72:24:56:da:05:21:
         a7:91:56:34
-----BEGIN CERTIFICATE-----
MIID6TCCAtGgAwIBAgIEEAAA1DANBgkqhkiG9w0BAQsFADBEMQswCQYDVQQGEwJE
RTEPMA0GA1UECAwGSGVzc2VuMRQwEgYDVQQKDAtwcml2YWN5aWRlYTEOMAwGA1UE
AwwFQ0EwMDEwHhcNMjEwMTE3MTYzOTQ3WhcNMjIwMTE3MTYzOTQ3WjAXMRUwEwYD
VQQDDAxjbj1jb3JuZWxpdXMwggEiMA0GCSqGSIb3DQEBAQUAA4IBDwAwggEKAoIB
AQDOpDkwJXPkneY3O4VZg++jbvmDufdIsAvV6AVAYc3FWrwRL1tO0E+40Oh/Baut
JAuQ1D9g7BW2Tr6O2Sar8i9/NcKmobxSOtmI+7P6cSC5UQ74rw0Wvr1duasw1axr
PLzuKEpPb9QJFfeYr3fbNhUuHu4P0Nlgrdu5xD/GJTL54+lQuOyEoMTSnP3OJYCF
fjqtTKdAGwpYGJ/CXjbh0UTpRrbctCii7O0C9yV54YaOaWdS7oIht4QtzOeoOVd9
ox7pUGN3Kavkpf/c7kxLXggrYggtdbgmbJPr9UXqzYNYUxVG5mtDwS/ZiEs91f0M
/1FS7VT7Jy1Z70xQznHN61qZAgMBAAGjggEOMIIBCjALBgNVHQ8EBAMCBaAwCQYD
VR0TBAIwADARBglghkgBhvhCAQEEBAMCBkAwMwYJYIZIAYb4QgENBCYWJE9wZW5T
U0wgR2VuZXJhdGVkIFNlcnZlciBDZXJ0aWZpY2F0ZTAdBgNVHQ4EFgQUDtW6Tn2S
VxX9YU40W+li0CAcfQgwdAYDVR0jBG0wa4AU9KfAzJFGr2TzkfIn+Miyb4qHMnOh
SKRGMEQxCzAJBgNVBAYTAkRFMQ8wDQYDVQQIDAZIZXNzZW4xFDASBgNVBAoMC3By
aXZhY3lpZGVhMQ4wDAYDVQQDDAVDQTAwMYIJAPvI66yDzRIHMBMGA1UdJQQMMAoG
CCsGAQUFBwMBMA0GCSqGSIb3DQEBCwUAA4IBAQCEzJCazA7nmG7yQBWFVyJ5mYEv
BIAcymKAuN0IJh04SoHRjZjo2A3DxBnYH0TKhjw+kuAO21/D4hf0x/tDNlwk3pKG
AqZgnxMTILifDl5kPamQjY9a0PIz0It6I6Glpgz8U1nt9O0eSN9RxyPB3mm3ayCw
gBpg13Fv+dNU1LwejdfRmYTi2nhKdL4ThBuZ1MlmcqvybOV0+2sxnp+X4PrwOO1V
ZO+8IryQAN7BAbQHSAc1BNUZc+grU8kPzqHFf5/DrGbfudKW7dJaIHdXdjAtO2yK
YJgSeIoUaJuiCwDlcXumWmNEqtmXEaRFdVhOS9g/OaRl4vtyJFbaBSGnkVY0
-----END CERTIFICATE-----
