Certificate:
    Data:
        Version: 3 (0x2)
        Serial Number: 268435669 (0x100000d5)
        Signature Algorithm: sha256WithRSAEncryption
        Issuer: C=DE, ST=Hessen, O=privacyidea, CN=CA001
        Validity
            Not Before: Jan 17 16:39:47 2021 GMT
            Not After : Jan 17 16:39:47 2022 GMT
        Subject: OU=realm1, CN=cornelius/emailAddress=user@localhost.localdomain
        Subject Public Key Info:
            Public Key Algorithm: rsaEncryption
                RSA Public-Key: (2048 bit)
                Modulus:
                    00:ae:a9:09:eb:46:64:b6:50:2a:9f:56:38:5e:99:
                    1a:0d:8e:a8:64:5b:6a:e5:86:75:f8:99:bb:88:4a:
                    40:96:bf:a4:3e:e4:b0:f9:16:ea:2e:71:95:59:35:
                    6f:7d:af:b1:b1:3a:0f:f6:32:82:ba:d6:7b:73:d0:
                    8f:e5:86:1d:20:ba:5c:2d:5f:f9:19:8a:36:d8:fe:
                    dd:a5:87:df:52:27:43:5e:fd:13:86:ef:45:b2:2b:
                    fa:15:6c:a1:6b:be:46:82:e6:92:4e:c6:2f:c8:2f:
                    55:c0:9f:8f:59:fc:2e:fa:5e:c9:9a:73:b7:1a:79:
                    fa:f1:e5:e3:1e:df:4c:ab:20:ed:78:d1:d5:16:91:
                    62:10:86:81:b5:38:06:d3:67:b8:0c:8d:77:0e:9f:
                    39:14:f7:8e:4d:d5:1d:9f:be:3d:e1:f9:2c:91:63:
                    a2:2d:aa:46:e2:c3:49:9b:69:0c:9f:f3:e6:74:36:
                    b4:94:ae:9f:57:72:0c:16:72:d2:df:5b:c2:7e:0e:
                    58:2c:65:48:e5:35:34:6c:d7:54:46:4b:99:cb:34:
                    22:be:8e:58:e3:fc:e7:cb:4e:c5:87:d7:da:8e:47:
                    96:95:c9:9f:e2:03:a2:64:62:24:5c:3e:b3:78:fd:
                    62:a4:aa:af:40:d8:05:25:2a:fc:15:01:c1:da:e6:
                    42:99
                Exponent: 65537 (0x10001)
        X509v3 extensions:
            X509v3 Key Usage: 
                Digital Signature, Key Encipherment
            X509v3 Basic Constraints: 
                CA:FALSE
            Netscape Cert Type: 
                SSL Server
            Netscape Comment: 
                OpenSSL Generated Server Certificate
            X509v3 Subject Key Identifier: 
                8C:59:DC:32:D8:E6:30:A9:B9:0B:56:6D:BC:EF:7A:7E:23:7F:AF:91
            X509v3 Authority Key Identifier: 
                keyid:F4:A7:C0:CC:91:46:AF:64:F3:91:F2:27:F8:C8:B2:6F:8A:87:32:73
                DirName:/C=DE/ST=Hessen/O=privacyidea/CN=CA001
                serial:FB:C8:EB:AC:83:CD:12:07

            X509v3 Extended Key Usage: 
                TLS Web Server Authentication
    Signature Algorithm: sha256WithRSAEncryption
         8e:f1:63:c5:44:fe:ca:dd:ce:c8:42:44:8f:c5:14:f3:ee:53:
         e9:20:83:78:97:bb:5a:d1:11:36:5d:de:36:1b:65:e5:b8:bc:
         7c:cf:ee:72:50:02:89:65:98:98:2f:ac:f5:f8:d4:4c:4b:ea:
         45:a4:6b:3f:5b:66:b5:73:2c:63:b9:4f:fe:21:04:12:7f:6c:
         9a:4e:40:4a:f8:1c:23:8a:7e:c2:d1:d4:2e:d8:d1:f6:6f:6d:
         70:7b:dc:3f:39:94:d3:49:ab:41:c0:93:6f:6a:c3:3d:79:64:
         f2:8a:5b:f4:6c:d5:cd:1b:59:41:cc:c6:5b:17:df:0d:71:85:
         60:85:64:0a:4b:5b:74:84:b9:96:43:cc:5f:ce:91:ca:4e:d5:
         c9:e1:4f:7f:e6:4a:8d:15:76:bb:28:a8:f0:78:3c:76:85:d1:
         44:d7:6e:88:54:24:6d:1c:49:9a:89:2b:23:5a:ee:79:32:c9:
         05:1b:da:04:55:bb:15:2f:19:7e:19:65:1f:0f:8b:43:be:a6:
         c7:24:f1:72:98:6b:73:2a:d9:72:6b:30:a3:60:52:70:5f:55:
         51:50:e5:31:d0:53:f8:df:98:11:1b:7b:f2:70:18:4b:04:07:
         86:39:5a:5a:d4:74:36:c6:ab:c8:34:00:ad:47:ff:64:7d:55:
         b4:d2:9a:09
-----BEGIN CERTIFICATE-----
MIIEIjCCAwqgAwIBAgIEEAAA1TANBgkqhkiG9w0BAQsFADBEMQswCQYDVQQGEwJE
RTEPMA0GA1UECAwGSGVzc2VuMRQwEgYDVQQKDAtwcml2YWN5aWRlYTEOMAwGA1UE
AwwFQ0EwMDEwHhcNMjEwMTE3MTYzOTQ3WhcNMjIwMTE3MTYzOTQ3WjBQMQ8wDQYD
VQQLDAZyZWFsbTExEjAQBgNVBAMMCWNvcm5lbGl1czEpMCcGCSqGSIb3DQEJARYa
dXNlckBsb2NhbGhvc3QubG9jYWxkb21haW4wggEiMA0GCSqGSIb3DQEBAQUAA4IB
DwAwggEKAoIBAQCuqQnrRmS2UCqfVjhemRoNjqhkW2rlhnX4mbuISkCWv6Q+5LD5
FuoucZVZNW99r7GxOg/2MoK61ntz0I/lhh0gulwtX/kZijbY/t2lh99SJ0Ne/ROG
70WyK/oVbKFrvkaC5pJOxi/IL1XAn49Z/C76Xsmac7caefrx5eMe30yrIO140dUW
kWIQhoG1OAbTZ7gMjXcOnzkU945N1R2fvj3h+SyRY6Itqkbiw0mbaQyf8+Z0NrSU
rp9XcgwWctLfW8J+DlgsZUjlNTRs11RGS5nLNCK+jljj/OfLTsWH19qOR5aVyZ/i
A6JkYiRcPrN4/WKkqq9A2AUlKvwVAcHa5kKZAgMBAAGjggEOMIIBCjALBgNVHQ8E
BAMCBaAwCQYDVR0TBAIwADARBglghkgBhvhCAQEEBAMCBkAwMwYJYIZIAYb4QgEN
BCYWJE9wZW5TU0wgR2VuZXJhdGVkIFNlcnZlciBDZXJ0aWZpY2F0ZTAdBgNVHQ4E
FgQUjFncMtjmMKm5C1ZtvO96fiN/r5EwdAYDVR0jBG0wa4AU9KfAzJFGr2TzkfIn
+Miyb4qHMnOhSKRGMEQxCzAJBgNVBAYTAkRFMQ8wDQYDVQQIDAZIZXNzZW4xFDAS
BgNVBAoMC3ByaXZhY3lpZGVhMQ4wDAYDVQQDDAVDQTAwMYIJAPvI66yDzRIHMBMG
A1UdJQQMMAoGCCsGAQUFBwMBMA0GCSqGSIb3DQEBCwUAA4IBAQCO8WPFRP7K3c7I
QkSPxRTz7lPpIIN4l7ta0RE2Xd42G2XluLx8z+5yUAKJZZiYL6z1+NRMS+pFpGs/
W2a1cyxjuU/+IQQSf2yaTkBK+Bwjin7C0dQu2NH2b21we9w/OZTTSatBwJNvasM9
eWTyilv0bNXNG1lBzMZbF98NcYVghWQKS1t0hLmWQ8xfzpHKTtXJ4U9/5kqNFXa7
KKjweDx2hdFE126IVCRtHEmaiSsjWu55MskFG9oEVbsVLxl+GWUfD4tDvqbHJPFy
mGtzKtlyazCjYFJwX1VRUOUx0FP435gRG3vycBhLBAeGOVpa1HQ2xqvINACtR/9k
fVW00poJ
-----END CERTIFICATE-----
